target datalayout = "e-m:e-p270:32:32-p271:32:32-p272:64:64-i64:64-i128:128-f80:128-n8:16:32:64-S128"
target triple = "x86_64-pc-linux-gnu"

%struct.SDL_VideoDevice = type { ptr, ptr, ptr, ptr, ptr, ptr, ptr, ptr, ptr, ptr, ptr, ptr, ptr, ptr, ptr, ptr, ptr, ptr, ptr, ptr, ptr, ptr, ptr, ptr, ptr, ptr, ptr, ptr, ptr, ptr, ptr, ptr, ptr, ptr, ptr, ptr, ptr, ptr, ptr, ptr, ptr, ptr, ptr, ptr, ptr, ptr, ptr, ptr, ptr, ptr, ptr, ptr, ptr, ptr, ptr, ptr, ptr, ptr, ptr, ptr, ptr, ptr, ptr, ptr, ptr, ptr, ptr, ptr, ptr, ptr, ptr, ptr, ptr, ptr, ptr, ptr, ptr, ptr, ptr, ptr, ptr, ptr, ptr, ptr, ptr, ptr, ptr, ptr, ptr, ptr, ptr, ptr, ptr, ptr, ptr, ptr, ptr, i64, i8, i8, i8, ptr, i32, ptr, %struct.SDL_Rect, ptr, ptr, i32, ptr, ptr, ptr, ptr, i64, ptr, i8, i32, i32, %struct.anon, ptr, ptr, ptr, ptr, ptr, ptr, %struct.SDL_AtomicInt, %struct.SDL_AtomicInt, i8, %struct.anon.0, ptr, ptr, ptr, ptr, ptr }
%struct.SDL_Rect = type { i32, i32, i32, i32 }
%struct.anon = type { i32, i32, i32, i32, i32, i32, i32, i32, i32, i32, i32, i32, i32, i32, i32, i32, i32, i32, i32, i32, i32, i32, i32, i32, i32, i32, i32, i32, i32, [256 x i8], ptr }
%struct.SDL_AtomicInt = type { i32 }
%struct.anon.0 = type { ptr, ptr, i32, [256 x i8], ptr }
%struct.SDL_EGL_VideoData = type { ptr, ptr, ptr, ptr, i32, i32, i32, i32, i32, i8, i32, ptr, ptr, ptr, ptr, ptr, ptr, ptr, ptr, ptr, ptr, ptr, ptr, ptr, ptr, ptr, ptr, ptr, ptr, ptr, ptr, ptr, ptr, ptr, ptr, ptr, ptr, ptr }

; Function Attrs: nounwind uwtable
define hidden ptr @SDL_EGL_GetProcAddressInternal(ptr noundef %0, ptr noundef %1) #0 {
  %3 = alloca ptr, align 8
  %4 = alloca ptr, align 8
  %5 = alloca ptr, align 8
  %6 = alloca i32, align 4
  %7 = alloca i8, align 1
  store ptr %0, ptr %3, align 8
  store ptr %1, ptr %4, align 8
  call void @llvm.lifetime.start.p0(i64 8, ptr %5) #5
  store ptr null, ptr %5, align 8
  %8 = load ptr, ptr %3, align 8
  %9 = getelementptr inbounds nuw %struct.SDL_VideoDevice, ptr %8, i32 0, i32 130
  %10 = load ptr, ptr %9, align 8
  %11 = icmp ne ptr %10, null
  br i1 %11, label %12, label %81

12:                                               ; preds = %2
  call void @llvm.lifetime.start.p0(i64 4, ptr %6) #5
  %13 = load ptr, ptr %3, align 8
  %14 = getelementptr inbounds nuw %struct.SDL_VideoDevice, ptr %13, i32 0, i32 130
  %15 = load ptr, ptr %14, align 8
  %16 = getelementptr inbounds nuw %struct.SDL_EGL_VideoData, ptr %15, i32 0, i32 6
  %17 = load i32, ptr %16, align 8
  %18 = shl i32 %17, 16
  %19 = load ptr, ptr %3, align 8
  %20 = getelementptr inbounds nuw %struct.SDL_VideoDevice, ptr %19, i32 0, i32 130
  %21 = load ptr, ptr %20, align 8
  %22 = getelementptr inbounds nuw %struct.SDL_EGL_VideoData, ptr %21, i32 0, i32 7
  %23 = load i32, ptr %22, align 4
  %24 = or i32 %18, %23
  store i32 %24, ptr %6, align 4
  call void @llvm.lifetime.start.p0(i64 1, ptr %7) #5
  %25 = load i32, ptr %6, align 4
  %26 = icmp uge i32 %25, 65541
  %27 = zext i1 %26 to i8
  store i8 %27, ptr %7, align 1
  %28 = load ptr, ptr %5, align 8
  %29 = icmp ne ptr %28, null
  br i1 %29, label %48, label %30

30:                                               ; preds = %12
  %31 = load i8, ptr %7, align 1, !range !6, !noundef !7
  %32 = trunc i8 %31 to i1
  br i1 %32, label %33, label %48

33:                                               ; preds = %30
  %34 = load ptr, ptr %3, align 8
  %35 = getelementptr inbounds nuw %struct.SDL_VideoDevice, ptr %34, i32 0, i32 130
  %36 = load ptr, ptr %35, align 8
  %37 = getelementptr inbounds nuw %struct.SDL_EGL_VideoData, ptr %36, i32 0, i32 14
  %38 = load ptr, ptr %37, align 8
  %39 = icmp ne ptr %38, null
  br i1 %39, label %40, label %48

40:                                               ; preds = %33
  %41 = load ptr, ptr %3, align 8
  %42 = getelementptr inbounds nuw %struct.SDL_VideoDevice, ptr %41, i32 0, i32 130
  %43 = load ptr, ptr %42, align 8
  %44 = getelementptr inbounds nuw %struct.SDL_EGL_VideoData, ptr %43, i32 0, i32 14
  %45 = load ptr, ptr %44, align 8
  %46 = load ptr, ptr %4, align 8
  %47 = call ptr %45(ptr noundef %46)
  store ptr %47, ptr %5, align 8
  br label %48

48:                                               ; preds = %40, %33, %30, %12
  %49 = load ptr, ptr %5, align 8
  %50 = icmp ne ptr %49, null
  br i1 %50, label %59, label %51

51:                                               ; preds = %48
  %52 = load ptr, ptr %3, align 8
  %53 = getelementptr inbounds nuw %struct.SDL_VideoDevice, ptr %52, i32 0, i32 130
  %54 = load ptr, ptr %53, align 8
  %55 = getelementptr inbounds nuw %struct.SDL_EGL_VideoData, ptr %54, i32 0, i32 0
  %56 = load ptr, ptr %55, align 8
  %57 = load ptr, ptr %4, align 8
  %58 = call ptr @SDL_LoadFunction_REAL(ptr noundef %56, ptr noundef %57)
  store ptr %58, ptr %5, align 8
  br label %59

59:                                               ; preds = %51, %48
  %60 = load ptr, ptr %5, align 8
  %61 = icmp ne ptr %60, null
  br i1 %61, label %80, label %62

62:                                               ; preds = %59
  %63 = load i8, ptr %7, align 1, !range !6, !noundef !7
  %64 = trunc i8 %63 to i1
  br i1 %64, label %80, label %65

65:                                               ; preds = %62
  %66 = load ptr, ptr %3, align 8
  %67 = getelementptr inbounds nuw %struct.SDL_VideoDevice, ptr %66, i32 0, i32 130
  %68 = load ptr, ptr %67, align 8
  %69 = getelementptr inbounds nuw %struct.SDL_EGL_VideoData, ptr %68, i32 0, i32 14
  %70 = load ptr, ptr %69, align 8
  %71 = icmp ne ptr %70, null
  br i1 %71, label %72, label %80

72:                                               ; preds = %65
  %73 = load ptr, ptr %3, align 8
  %74 = getelementptr inbounds nuw %struct.SDL_VideoDevice, ptr %73, i32 0, i32 130
  %75 = load ptr, ptr %74, align 8
  %76 = getelementptr inbounds nuw %struct.SDL_EGL_VideoData, ptr %75, i32 0, i32 14
  %77 = load ptr, ptr %76, align 8
  %78 = load ptr, ptr %4, align 8
  %79 = call ptr %77(ptr noundef %78)
  store ptr %79, ptr %5, align 8
  br label %80

80:                                               ; preds = %72, %65, %62, %59
  call void @llvm.lifetime.end.p0(i64 1, ptr %7) #5
  call void @llvm.lifetime.end.p0(i64 4, ptr %6) #5
  br label %81

81:                                               ; preds = %80, %2
  %82 = load ptr, ptr %5, align 8
  call void @llvm.lifetime.end.p0(i64 8, ptr %5) #5
  ret ptr %82
}