; Function Attrs: nounwind uwtable
define hidden ptr @SDL_EGL_GetProcAddressInternal(ptr noundef readonly captures(none) %0, ptr noundef %1) local_unnamed_addr #0 {
  %3 = getelementptr inbounds nuw i8, ptr %0, i64 1672
  %4 = load ptr, ptr %3, align 8
  %.not = icmp eq ptr %4, null
  br i1 %.not, label %.thread28, label %5

5:                                                ; preds = %2
  %6 = getelementptr inbounds nuw i8, ptr %4, i64 40
  %7 = load i32, ptr %6, align 8
  %8 = shl i32 %7, 16
  %9 = getelementptr inbounds nuw i8, ptr %4, i64 44
  %10 = load i32, ptr %9, align 4
  %11 = or i32 %8, %10
  %12 = icmp ugt i32 %11, 65540
  br i1 %12, label %13, label %.thread

13:                                               ; preds = %5
  %14 = getelementptr inbounds nuw i8, ptr %4, i64 88
  %15 = load ptr, ptr %14, align 8
  %.not23 = icmp eq ptr %15, null
  br i1 %.not23, label %.thread, label %16

16:                                               ; preds = %13
  %17 = tail call ptr %15(ptr noundef %1) #7
  %.not24 = icmp eq ptr %17, null
  br i1 %.not24, label %..thread_crit_edge, label %.thread28

..thread_crit_edge:                               ; preds = %16
  %.pre = load ptr, ptr %3, align 8
  br label %.thread

.thread:                                          ; preds = %..thread_crit_edge, %5, %13
  %18 = phi ptr [ %.pre, %..thread_crit_edge ], [ %4, %5 ], [ %4, %13 ]
  %19 = load ptr, ptr %18, align 8
  %20 = tail call ptr @SDL_LoadFunction_REAL(ptr noundef %19, ptr noundef %1) #7
  %21 = icmp ne ptr %20, null
  %or.cond3 = or i1 %12, %21
  br i1 %or.cond3, label %.thread28, label %22

22:                                               ; preds = %.thread
  %23 = load ptr, ptr %3, align 8
  %24 = getelementptr inbounds nuw i8, ptr %23, i64 88
  %25 = load ptr, ptr %24, align 8
  %.not25 = icmp eq ptr %25, null
  br i1 %.not25, label %.thread28, label %26

26:                                               ; preds = %22
  %27 = tail call ptr %25(ptr noundef %1) #7
  br label %.thread28

.thread28:                                        ; preds = %16, %.thread, %22, %26, %2
  %.0 = phi ptr [ null, %2 ], [ %20, %.thread ], [ %27, %26 ], [ null, %22 ], [ %17, %16 ]
  ret ptr %.0
}